target datalayout = "e-m:e-p270:32:32-p271:32:32-p272:64:64-i64:64-i128:128-f80:128-n8:16:32:64-S128"
target triple = "x86_64-pc-linux-gnu"

; Function Attrs: nounwind uwtable
define i64 @libdeflate_deflate_compress_bound(ptr noundef %0, i64 noundef %1) #0 {
  %3 = alloca ptr, align 8
  %4 = alloca i64, align 8
  %5 = alloca i64, align 8
  store ptr %0, ptr %3, align 8, !tbaa !17
  store i64 %1, ptr %4, align 8, !tbaa !11
  call void @llvm.lifetime.start.p0(i64 8, ptr %5) #10
  %6 = load i64, ptr %4, align 8, !tbaa !11
  %7 = add i64 %6, 5000
  %8 = sub i64 %7, 1
  %9 = udiv i64 %8, 5000
  %10 = icmp uge i64 %9, 1
  br i1 %10, label %11, label %16

11:                                               ; preds = %2
  %12 = load i64, ptr %4, align 8, !tbaa !11
  %13 = add i64 %12, 5000
  %14 = sub i64 %13, 1
  %15 = udiv i64 %14, 5000
  br label %17

16:                                               ; preds = %2
  br label %17

17:                                               ; preds = %16, %11
  %18 = phi i64 [ %15, %11 ], [ 1, %16 ]
  store i64 %18, ptr %5, align 8, !tbaa !11
  %19 = load i64, ptr %5, align 8, !tbaa !11
  %20 = mul i64 5, %19
  %21 = load i64, ptr %4, align 8, !tbaa !11
  %22 = add i64 %20, %21
  call void @llvm.lifetime.end.p0(i64 8, ptr %5) #10
  ret i64 %22
}