; Function Attrs: mustprogress nofree norecurse nosync nounwind willreturn memory(none) uwtable
define i64 @libdeflate_deflate_compress_bound(ptr noundef readnone captures(none) %0, i64 noundef %1) local_unnamed_addr #6 {
  %3 = add i64 %1, 4999
  %.not = icmp ult i64 %3, 5000
  br i1 %.not, label %7, label %4

4:                                                ; preds = %2
  %5 = udiv i64 %3, 5000
  %6 = mul nuw nsw i64 %5, 5
  br label %7

7:                                                ; preds = %2, %4
  %8 = phi i64 [ %6, %4 ], [ 5, %2 ]
  %9 = add i64 %8, %1
  ret i64 %9
}